target datalayout = "e-m:e-p270:32:32-p271:32:32-p272:64:64-i64:64-i128:128-f80:128-n8:16:32:64-S128"
target triple = "x86_64-pc-linux-gnu"

%struct.SDL_Touch = type { i64, i32, i32, i32, ptr, ptr }

@SDL_num_touch = internal global i32 0, align 4
@SDL_touchDevices = internal global ptr null, align 8
@.str.2 = private unnamed_addr constant [1 x i8] zeroinitializer, align 1

; Function Attrs: nounwind uwtable
define internal i32 @SDL_GetTouchIndex(i64 noundef %0) #0 {
  %2 = alloca i32, align 4
  %3 = alloca i64, align 8
  %4 = alloca i32, align 4
  %5 = alloca ptr, align 8
  %6 = alloca i32, align 4
  store i64 %0, ptr %3, align 8
  call void @llvm.lifetime.start.p0(i64 4, ptr %4) #5
  call void @llvm.lifetime.start.p0(i64 8, ptr %5) #5
  store i32 0, ptr %4, align 4
  br label %7

7:                                                ; preds = %25, %1
  %8 = load i32, ptr %4, align 4
  %9 = load i32, ptr @SDL_num_touch, align 4
  %10 = icmp slt i32 %8, %9
  br i1 %10, label %11, label %28

11:                                               ; preds = %7
  %12 = load ptr, ptr @SDL_touchDevices, align 8
  %13 = load i32, ptr %4, align 4
  %14 = sext i32 %13 to i64
  %15 = getelementptr inbounds ptr, ptr %12, i64 %14
  %16 = load ptr, ptr %15, align 8
  store ptr %16, ptr %5, align 8
  %17 = load ptr, ptr %5, align 8
  %18 = getelementptr inbounds nuw %struct.SDL_Touch, ptr %17, i32 0, i32 0
  %19 = load i64, ptr %18, align 8
  %20 = load i64, ptr %3, align 8
  %21 = icmp eq i64 %19, %20
  br i1 %21, label %22, label %24

22:                                               ; preds = %11
  %23 = load i32, ptr %4, align 4
  store i32 %23, ptr %2, align 4
  store i32 1, ptr %6, align 4
  br label %29

24:                                               ; preds = %11
  br label %25

25:                                               ; preds = %24
  %26 = load i32, ptr %4, align 4
  %27 = add nsw i32 %26, 1
  store i32 %27, ptr %4, align 4
  br label %7, !llvm.loop !5

28:                                               ; preds = %7
  store i32 -1, ptr %2, align 4
  store i32 1, ptr %6, align 4
  br label %29

29:                                               ; preds = %28, %22
  call void @llvm.lifetime.end.p0(i64 8, ptr %5) #5
  call void @llvm.lifetime.end.p0(i64 4, ptr %4) #5
  %30 = load i32, ptr %2, align 4
  ret i32 %30
}

; Function Attrs: nounwind uwtable
define hidden i32 @SDL_AddTouch(i64 noundef %0, i32 noundef %1, ptr noundef %2) #0 {
  %4 = alloca i32, align 4
  %5 = alloca i64, align 8
  %6 = alloca i32, align 4
  %7 = alloca ptr, align 8
  %8 = alloca ptr, align 8
  %9 = alloca i32, align 4
  %10 = alloca i32, align 4
  store i64 %0, ptr %5, align 8
  store i32 %1, ptr %6, align 4
  store ptr %2, ptr %7, align 8
  call void @llvm.lifetime.start.p0(i64 8, ptr %8) #5
  call void @llvm.lifetime.start.p0(i64 4, ptr %9) #5
  br label %11

11:                                               ; preds = %3
  br label %12

12:                                               ; preds = %11
  br label %13

13:                                               ; preds = %12
  %14 = load i64, ptr %5, align 8
  %15 = call i32 @SDL_GetTouchIndex(i64 noundef %14)
  store i32 %15, ptr %9, align 4
  %16 = load i32, ptr %9, align 4
  %17 = icmp sge i32 %16, 0
  br i1 %17, label %18, label %20

18:                                               ; preds = %13
  %19 = load i32, ptr %9, align 4
  store i32 %19, ptr %4, align 4
  store i32 1, ptr %10, align 4
  br label %95

20:                                               ; preds = %13
  %21 = load ptr, ptr @SDL_touchDevices, align 8
  %22 = load i32, ptr @SDL_num_touch, align 4
  %23 = add nsw i32 %22, 1
  %24 = sext i32 %23 to i64
  %25 = mul i64 %24, 8
  %26 = call ptr @SDL_realloc_REAL(ptr noundef %21, i64 noundef %25) #6
  store ptr %26, ptr %8, align 8
  %27 = load ptr, ptr %8, align 8
  %28 = icmp ne ptr %27, null
  br i1 %28, label %30, label %29

29:                                               ; preds = %20
  store i32 -1, ptr %4, align 4
  store i32 1, ptr %10, align 4
  br label %95

30:                                               ; preds = %20
  %31 = load ptr, ptr %8, align 8
  store ptr %31, ptr @SDL_touchDevices, align 8
  %32 = load i32, ptr @SDL_num_touch, align 4
  store i32 %32, ptr %9, align 4
  %33 = call noalias ptr @SDL_malloc_REAL(i64 noundef 40)
  %34 = load ptr, ptr @SDL_touchDevices, align 8
  %35 = load i32, ptr %9, align 4
  %36 = sext i32 %35 to i64
  %37 = getelementptr inbounds ptr, ptr %34, i64 %36
  store ptr %33, ptr %37, align 8
  %38 = load ptr, ptr @SDL_touchDevices, align 8
  %39 = load i32, ptr %9, align 4
  %40 = sext i32 %39 to i64
  %41 = getelementptr inbounds ptr, ptr %38, i64 %40
  %42 = load ptr, ptr %41, align 8
  %43 = icmp ne ptr %42, null
  br i1 %43, label %45, label %44

44:                                               ; preds = %30
  store i32 -1, ptr %4, align 4
  store i32 1, ptr %10, align 4
  br label %95

45:                                               ; preds = %30
  %46 = load i32, ptr @SDL_num_touch, align 4
  %47 = add nsw i32 %46, 1
  store i32 %47, ptr @SDL_num_touch, align 4
  %48 = load i64, ptr %5, align 8
  %49 = load ptr, ptr @SDL_touchDevices, align 8
  %50 = load i32, ptr %9, align 4
  %51 = sext i32 %50 to i64
  %52 = getelementptr inbounds ptr, ptr %49, i64 %51
  %53 = load ptr, ptr %52, align 8
  %54 = getelementptr inbounds nuw %struct.SDL_Touch, ptr %53, i32 0, i32 0
  store i64 %48, ptr %54, align 8
  %55 = load i32, ptr %6, align 4
  %56 = load ptr, ptr @SDL_touchDevices, align 8
  %57 = load i32, ptr %9, align 4
  %58 = sext i32 %57 to i64
  %59 = getelementptr inbounds ptr, ptr %56, i64 %58
  %60 = load ptr, ptr %59, align 8
  %61 = getelementptr inbounds nuw %struct.SDL_Touch, ptr %60, i32 0, i32 1
  store i32 %55, ptr %61, align 8
  %62 = load ptr, ptr @SDL_touchDevices, align 8
  %63 = load i32, ptr %9, align 4
  %64 = sext i32 %63 to i64
  %65 = getelementptr inbounds ptr, ptr %62, i64 %64
  %66 = load ptr, ptr %65, align 8
  %67 = getelementptr inbounds nuw %struct.SDL_Touch, ptr %66, i32 0, i32 2
  store i32 0, ptr %67, align 4
  %68 = load ptr, ptr @SDL_touchDevices, align 8
  %69 = load i32, ptr %9, align 4
  %70 = sext i32 %69 to i64
  %71 = getelementptr inbounds ptr, ptr %68, i64 %70
  %72 = load ptr, ptr %71, align 8
  %73 = getelementptr inbounds nuw %struct.SDL_Touch, ptr %72, i32 0, i32 3
  store i32 0, ptr %73, align 8
  %74 = load ptr, ptr @SDL_touchDevices, align 8
  %75 = load i32, ptr %9, align 4
  %76 = sext i32 %75 to i64
  %77 = getelementptr inbounds ptr, ptr %74, i64 %76
  %78 = load ptr, ptr %77, align 8
  %79 = getelementptr inbounds nuw %struct.SDL_Touch, ptr %78, i32 0, i32 4
  store ptr null, ptr %79, align 8
  %80 = load ptr, ptr %7, align 8
  %81 = icmp ne ptr %80, null
  br i1 %81, label %82, label %84

82:                                               ; preds = %45
  %83 = load ptr, ptr %7, align 8
  br label %85

84:                                               ; preds = %45
  br label %85

85:                                               ; preds = %84, %82
  %86 = phi ptr [ %83, %82 ], [ @.str.2, %84 ]
  %87 = call noalias ptr @SDL_strdup_REAL(ptr noundef %86)
  %88 = load ptr, ptr @SDL_touchDevices, align 8
  %89 = load i32, ptr %9, align 4
  %90 = sext i32 %89 to i64
  %91 = getelementptr inbounds ptr, ptr %88, i64 %90
  %92 = load ptr, ptr %91, align 8
  %93 = getelementptr inbounds nuw %struct.SDL_Touch, ptr %92, i32 0, i32 5
  store ptr %87, ptr %93, align 8
  %94 = load i32, ptr %9, align 4
  store i32 %94, ptr %4, align 4
  store i32 1, ptr %10, align 4
  br label %95

95:                                               ; preds = %85, %44, %29, %18
  call void @llvm.lifetime.end.p0(i64 4, ptr %9) #5
  call void @llvm.lifetime.end.p0(i64 8, ptr %8) #5
  %96 = load i32, ptr %4, align 4
  ret i32 %96
}