; Function Attrs: nounwind uwtable
define hidden i32 @SDL_AddTouch(i64 noundef %0, i32 noundef %1, ptr noundef %2) local_unnamed_addr #2 {
  %4 = load i32, ptr @SDL_num_touch, align 4
  %5 = icmp sgt i32 %4, 0
  %.pre = load ptr, ptr @SDL_touchDevices, align 8
  br i1 %5, label %.lr.ph.i, label %SDL_GetTouchIndex.exit.thread

.lr.ph.i:                                         ; preds = %3
  %wide.trip.count.i = zext nneg i32 %4 to i64
  br label %6

6:                                                ; preds = %11, %.lr.ph.i
  %indvars.iv.i = phi i64 [ 0, %.lr.ph.i ], [ %indvars.iv.next.i, %11 ]
  %7 = getelementptr inbounds nuw ptr, ptr %.pre, i64 %indvars.iv.i
  %8 = load ptr, ptr %7, align 8
  %9 = load i64, ptr %8, align 8
  %10 = icmp eq i64 %9, %0
  br i1 %10, label %SDL_GetTouchIndex.exit, label %11

11:                                               ; preds = %6
  %indvars.iv.next.i = add nuw nsw i64 %indvars.iv.i, 1
  %exitcond.not.i = icmp eq i64 %indvars.iv.next.i, %wide.trip.count.i
  br i1 %exitcond.not.i, label %SDL_GetTouchIndex.exit.thread, label %6, !llvm.loop !5

SDL_GetTouchIndex.exit:                           ; preds = %6
  %12 = trunc nuw nsw i64 %indvars.iv.i to i32
  br label %36

SDL_GetTouchIndex.exit.thread:                    ; preds = %11, %3
  %13 = add nsw i32 %4, 1
  %14 = sext i32 %13 to i64
  %15 = shl nsw i64 %14, 3
  %16 = tail call ptr @SDL_realloc_REAL(ptr noundef %.pre, i64 noundef %15) #8
  %.not = icmp eq ptr %16, null
  br i1 %.not, label %36, label %17

17:                                               ; preds = %SDL_GetTouchIndex.exit.thread
  store ptr %16, ptr @SDL_touchDevices, align 8
  %18 = load i32, ptr @SDL_num_touch, align 4
  %19 = tail call noalias ptr @SDL_malloc_REAL(i64 noundef 40) #7
  %20 = load ptr, ptr @SDL_touchDevices, align 8
  %21 = sext i32 %18 to i64
  %22 = getelementptr inbounds ptr, ptr %20, i64 %21
  store ptr %19, ptr %22, align 8
  %.not20 = icmp eq ptr %19, null
  br i1 %.not20, label %36, label %23

23:                                               ; preds = %17
  %24 = load i32, ptr @SDL_num_touch, align 4
  %25 = add nsw i32 %24, 1
  store i32 %25, ptr @SDL_num_touch, align 4
  store i64 %0, ptr %19, align 8
  %26 = getelementptr inbounds nuw i8, ptr %19, i64 8
  store i32 %1, ptr %26, align 8
  %27 = getelementptr inbounds nuw i8, ptr %19, i64 12
  store i32 0, ptr %27, align 4
  %28 = getelementptr inbounds nuw i8, ptr %19, i64 16
  store i32 0, ptr %28, align 8
  %29 = getelementptr inbounds nuw i8, ptr %19, i64 24
  store ptr null, ptr %29, align 8
  %.not21 = icmp eq ptr %2, null
  %30 = select i1 %.not21, ptr @.str.2, ptr %2
  %31 = tail call noalias ptr @SDL_strdup_REAL(ptr noundef nonnull %30) #7
  %32 = load ptr, ptr @SDL_touchDevices, align 8
  %33 = getelementptr inbounds ptr, ptr %32, i64 %21
  %34 = load ptr, ptr %33, align 8
  %35 = getelementptr inbounds nuw i8, ptr %34, i64 32
  store ptr %31, ptr %35, align 8
  br label %36

36:                                               ; preds = %SDL_GetTouchIndex.exit, %17, %SDL_GetTouchIndex.exit.thread, %23
  %.0 = phi i32 [ %18, %23 ], [ %12, %SDL_GetTouchIndex.exit ], [ -1, %SDL_GetTouchIndex.exit.thread ], [ -1, %17 ]
  ret i32 %.0
}